target datalayout = "e-m:e-p270:32:32-p271:32:32-p272:64:64-i64:64-i128:128-f80:128-n8:16:32:64-S128"
target triple = "x86_64-pc-linux-gnu"

%struct.H5VL_loc_params_t = type { i32, i32, %union.anon.7 }
%union.anon.7 = type { %struct.H5VL_loc_by_idx }
%struct.H5VL_loc_by_idx = type { ptr, i32, i32, i64, i64 }

@.str.2 = private unnamed_addr constant [101 x i8] c"generated/home/dtcxzyw/WorkSpace/Projects/compilers/llvm-opt-benchmark/bench/hdf5/hdf5/src/H5VLint.c\00", align 1
@H5E_VOL_g = external global i64, align 8
@H5E_CANTSET_g = external global i64, align 8
@H5E_BADTYPE_g = external global i64, align 8
@H5E_ARGS_g = external global i64, align 8
@.str.70 = private unnamed_addr constant [28 x i8] c"invalid location identifier\00", align 1
@__func__.H5VL_setup_acc_args = private unnamed_addr constant [20 x i8] c"H5VL_setup_acc_args\00", align 1
@.str.96 = private unnamed_addr constant [36 x i8] c"can't set access property list info\00", align 1

; Function Attrs: nounwind uwtable
define i32 @H5VL_setup_acc_args(i64 noundef %0, ptr noundef %1, i1 noundef zeroext %2, ptr noundef %3, ptr noundef %4, ptr noundef %5) #0 {
  %7 = alloca i64, align 8
  %8 = alloca ptr, align 8
  %9 = alloca i8, align 1
  %10 = alloca ptr, align 8
  %11 = alloca ptr, align 8
  %12 = alloca ptr, align 8
  %13 = alloca i32, align 4
  %14 = alloca i8, align 1
  store i64 %0, ptr %7, align 8
  store ptr %1, ptr %8, align 8
  %15 = zext i1 %2 to i8
  store i8 %15, ptr %9, align 1
  store ptr %3, ptr %10, align 8
  store ptr %4, ptr %11, align 8
  store ptr %5, ptr %12, align 8
  store i32 0, ptr %13, align 4
  store i8 0, ptr %14, align 1
  %16 = load ptr, ptr %10, align 8
  %17 = load ptr, ptr %8, align 8
  %18 = load i64, ptr %7, align 8
  %19 = load i8, ptr %9, align 1
  %20 = trunc i8 %19 to i1
  %21 = call i32 @H5CX_set_apl(ptr noundef %16, ptr noundef %17, i64 noundef %18, i1 noundef zeroext %20)
  %22 = icmp slt i32 %21, 0
  br i1 %22, label %23, label %38

23:                                               ; preds = %6
  br label %24

24:                                               ; preds = %23
  br label %25

25:                                               ; preds = %24
  br label %26

26:                                               ; preds = %25
  %27 = load i64, ptr @H5E_VOL_g, align 8
  %28 = load i64, ptr @H5E_CANTSET_g, align 8
  %29 = call i32 (ptr, ptr, i32, i64, i64, ptr, ...) @H5E_printf_stack(ptr noundef @.str.2, ptr noundef @__func__.H5VL_setup_acc_args, i32 noundef 2598, i64 noundef %27, i64 noundef %28, ptr noundef @.str.96)
  br label %30

30:                                               ; preds = %26
  store i8 1, ptr %14, align 1
  %31 = load i8, ptr %14, align 1
  %32 = trunc i8 %31 to i1
  %33 = zext i1 %32 to i8
  store i8 %33, ptr %14, align 1
  br label %34

34:                                               ; preds = %30
  br label %35

35:                                               ; preds = %34
  store i32 -1, ptr %13, align 4
  br label %65

36:                                               ; No predecessors!
  br label %37

37:                                               ; preds = %36
  br label %38

38:                                               ; preds = %37, %6
  %39 = load i64, ptr %7, align 8
  %40 = call ptr @H5VL_vol_object(i64 noundef %39)
  %41 = load ptr, ptr %11, align 8
  store ptr %40, ptr %41, align 8
  %42 = icmp eq ptr null, %40
  br i1 %42, label %43, label %58

43:                                               ; preds = %38
  br label %44

44:                                               ; preds = %43
  br label %45

45:                                               ; preds = %44
  br label %46

46:                                               ; preds = %45
  %47 = load i64, ptr @H5E_ARGS_g, align 8
  %48 = load i64, ptr @H5E_BADTYPE_g, align 8
  %49 = call i32 (ptr, ptr, i32, i64, i64, ptr, ...) @H5E_printf_stack(ptr noundef @.str.2, ptr noundef @__func__.H5VL_setup_acc_args, i32 noundef 2602, i64 noundef %47, i64 noundef %48, ptr noundef @.str.70)
  br label %50

50:                                               ; preds = %46
  store i8 1, ptr %14, align 1
  %51 = load i8, ptr %14, align 1
  %52 = trunc i8 %51 to i1
  %53 = zext i1 %52 to i8
  store i8 %53, ptr %14, align 1
  br label %54

54:                                               ; preds = %50
  br label %55

55:                                               ; preds = %54
  store i32 -1, ptr %13, align 4
  br label %65

56:                                               ; No predecessors!
  br label %57

57:                                               ; preds = %56
  br label %58

58:                                               ; preds = %57, %38
  %59 = load ptr, ptr %12, align 8
  %60 = getelementptr inbounds %struct.H5VL_loc_params_t, ptr %59, i32 0, i32 1
  store i32 0, ptr %60, align 4
  %61 = load i64, ptr %7, align 8
  %62 = call i32 @H5I_get_type(i64 noundef %61)
  %63 = load ptr, ptr %12, align 8
  %64 = getelementptr inbounds %struct.H5VL_loc_params_t, ptr %63, i32 0, i32 0
  store i32 %62, ptr %64, align 8
  br label %65

65:                                               ; preds = %58, %55, %35
  %66 = load i32, ptr %13, align 4
  ret i32 %66
}