; Function Attrs: nounwind uwtable
define range(i32 -1, 1) i32 @H5VL_setup_acc_args(i64 noundef %0, ptr noundef %1, i1 noundef zeroext %2, ptr noundef %3, ptr nocapture noundef writeonly %4, ptr nocapture noundef writeonly %5) local_unnamed_addr #0 {
  %7 = tail call i32 @H5CX_set_apl(ptr noundef %3, ptr noundef %1, i64 noundef %0, i1 noundef zeroext %2) #10
  %8 = icmp slt i32 %7, 0
  br i1 %8, label %9, label %13

9:                                                ; preds = %6
  %10 = load i64, ptr @H5E_VOL_g, align 8
  %11 = load i64, ptr @H5E_CANTSET_g, align 8
  %12 = tail call i32 (ptr, ptr, i32, i64, i64, ptr, ...) @H5E_printf_stack(ptr noundef nonnull @.str.2, ptr noundef nonnull @__func__.H5VL_setup_acc_args, i32 noundef 2598, i64 noundef %10, i64 noundef %11, ptr noundef nonnull @.str.96) #10
  br label %23

13:                                               ; preds = %6
  %14 = tail call ptr @H5VL_vol_object(i64 noundef %0)
  store ptr %14, ptr %4, align 8
  %15 = icmp eq ptr %14, null
  br i1 %15, label %16, label %20

16:                                               ; preds = %13
  %17 = load i64, ptr @H5E_ARGS_g, align 8
  %18 = load i64, ptr @H5E_BADTYPE_g, align 8
  %19 = tail call i32 (ptr, ptr, i32, i64, i64, ptr, ...) @H5E_printf_stack(ptr noundef nonnull @.str.2, ptr noundef nonnull @__func__.H5VL_setup_acc_args, i32 noundef 2602, i64 noundef %17, i64 noundef %18, ptr noundef nonnull @.str.70) #10
  br label %23

20:                                               ; preds = %13
  %21 = getelementptr inbounds i8, ptr %5, i64 4
  store i32 0, ptr %21, align 4
  %22 = tail call i32 @H5I_get_type(i64 noundef %0) #10
  store i32 %22, ptr %5, align 8
  br label %23

23:                                               ; preds = %20, %16, %9
  %.0 = phi i32 [ -1, %9 ], [ -1, %16 ], [ 0, %20 ]
  ret i32 %.0
}